
build/g0synth.elf:     file format elf32-littlearm


Disassembly of section .text:

08000534 <vcoTap>:
 8000534:	b5f0      	push	{r4, r5, r6, r7, lr}
 8000536:	46de      	mov	lr, fp
 8000538:	4657      	mov	r7, sl
 800053a:	464e      	mov	r6, r9
 800053c:	4645      	mov	r5, r8
 800053e:	b5e0      	push	{r5, r6, r7, lr}
 8000540:	4b61      	ldr	r3, [pc, #388]	; (80006c8 <vcoTap+0x194>)
 8000542:	4d62      	ldr	r5, [pc, #392]	; (80006cc <vcoTap+0x198>)
 8000544:	681a      	ldr	r2, [r3, #0]
 8000546:	4355      	muls	r5, r2
 8000548:	4a61      	ldr	r2, [pc, #388]	; (80006d0 <vcoTap+0x19c>)
 800054a:	4694      	mov	ip, r2
 800054c:	4465      	add	r5, ip
 800054e:	601d      	str	r5, [r3, #0]
 8000550:	17eb      	asrs	r3, r5, #31
 8000552:	041b      	lsls	r3, r3, #16
 8000554:	0c1b      	lsrs	r3, r3, #16
 8000556:	195b      	adds	r3, r3, r5
 8000558:	1419      	asrs	r1, r3, #16
 800055a:	8802      	ldrh	r2, [r0, #0]
 800055c:	6943      	ldr	r3, [r0, #20]
 800055e:	435a      	muls	r2, r3
 8000560:	0c12      	lsrs	r2, r2, #16
 8000562:	6983      	ldr	r3, [r0, #24]
 8000564:	469c      	mov	ip, r3
 8000566:	4462      	add	r2, ip
 8000568:	b297      	uxth	r7, r2
 800056a:	09fc      	lsrs	r4, r7, #7
 800056c:	237f      	movs	r3, #127	; 0x7f
 800056e:	401f      	ands	r7, r3
 8000570:	4a58      	ldr	r2, [pc, #352]	; (80006d4 <vcoTap+0x1a0>)
 8000572:	00e6      	lsls	r6, r4, #3
 8000574:	58b3      	ldr	r3, [r6, r2]
 8000576:	1996      	adds	r6, r2, r6
 8000578:	6876      	ldr	r6, [r6, #4]
 800057a:	46b3      	mov	fp, r6
 800057c:	3401      	adds	r4, #1
 800057e:	00e4      	lsls	r4, r4, #3
 8000580:	58a2      	ldr	r2, [r4, r2]
 8000582:	1ad2      	subs	r2, r2, r3
 8000584:	437a      	muls	r2, r7
 8000586:	0b52      	lsrs	r2, r2, #13
 8000588:	189b      	adds	r3, r3, r2
 800058a:	4a53      	ldr	r2, [pc, #332]	; (80006d8 <vcoTap+0x1a4>)
 800058c:	6812      	ldr	r2, [r2, #0]
 800058e:	4694      	mov	ip, r2
 8000590:	18d6      	adds	r6, r2, r3
 8000592:	8844      	ldrh	r4, [r0, #2]
 8000594:	0aa2      	lsrs	r2, r4, #10
 8000596:	2780      	movs	r7, #128	; 0x80
 8000598:	00ff      	lsls	r7, r7, #3
 800059a:	403c      	ands	r4, r7
 800059c:	0017      	movs	r7, r2
 800059e:	4377      	muls	r7, r6
 80005a0:	46ba      	mov	sl, r7
 80005a2:	001f      	movs	r7, r3
 80005a4:	4357      	muls	r7, r2
 80005a6:	0c3f      	lsrs	r7, r7, #16
 80005a8:	434f      	muls	r7, r1
 80005aa:	46b8      	mov	r8, r7
 80005ac:	44d0      	add	r8, sl
 80005ae:	3201      	adds	r2, #1
 80005b0:	0017      	movs	r7, r2
 80005b2:	4377      	muls	r7, r6
 80005b4:	46b9      	mov	r9, r7
 80005b6:	435a      	muls	r2, r3
 80005b8:	0c12      	lsrs	r2, r2, #16
 80005ba:	434a      	muls	r2, r1
 80005bc:	4491      	add	r9, r2
 80005be:	4642      	mov	r2, r8
 80005c0:	0a92      	lsrs	r2, r2, #10
 80005c2:	4690      	mov	r8, r2
 80005c4:	4a45      	ldr	r2, [pc, #276]	; (80006dc <vcoTap+0x1a8>)
 80005c6:	1b12      	subs	r2, r2, r4
 80005c8:	4647      	mov	r7, r8
 80005ca:	437a      	muls	r2, r7
 80005cc:	464f      	mov	r7, r9
 80005ce:	0abf      	lsrs	r7, r7, #10
 80005d0:	437c      	muls	r4, r7
 80005d2:	1914      	adds	r4, r2, r4
 80005d4:	2280      	movs	r2, #128	; 0x80
 80005d6:	0612      	lsls	r2, r2, #24
 80005d8:	18a2      	adds	r2, r4, r2
 80005da:	0c12      	lsrs	r2, r2, #16
 80005dc:	4690      	mov	r8, r2
 80005de:	00d2      	lsls	r2, r2, #3
 80005e0:	4442      	add	r2, r8
 80005e2:	0092      	lsls	r2, r2, #2
 80005e4:	4442      	add	r2, r8
 80005e6:	00d7      	lsls	r7, r2, #3
 80005e8:	46b8      	mov	r8, r7
 80005ea:	4442      	add	r2, r8
 80005ec:	1852      	adds	r2, r2, r1
 80005ee:	0c12      	lsrs	r2, r2, #16
 80005f0:	81c2      	strh	r2, [r0, #14]
 80005f2:	0a9a      	lsrs	r2, r3, #10
 80005f4:	4690      	mov	r8, r2
 80005f6:	8902      	ldrh	r2, [r0, #8]
 80005f8:	4647      	mov	r7, r8
 80005fa:	437a      	muls	r2, r7
 80005fc:	18d3      	adds	r3, r2, r3
 80005fe:	45b4      	cmp	ip, r6
 8000600:	dd21      	ble.n	8000646 <vcoTap+0x112>
 8000602:	8942      	ldrh	r2, [r0, #10]
 8000604:	4352      	muls	r2, r2
 8000606:	4694      	mov	ip, r2
 8000608:	17d2      	asrs	r2, r2, #31
 800060a:	0512      	lsls	r2, r2, #20
 800060c:	0d12      	lsrs	r2, r2, #20
 800060e:	4462      	add	r2, ip
 8000610:	1312      	asrs	r2, r2, #12
 8000612:	17ef      	asrs	r7, r5, #31
 8000614:	033f      	lsls	r7, r7, #12
 8000616:	0b3f      	lsrs	r7, r7, #12
 8000618:	46bc      	mov	ip, r7
 800061a:	4465      	add	r5, ip
 800061c:	152d      	asrs	r5, r5, #20
 800061e:	4295      	cmp	r5, r2
 8000620:	d911      	bls.n	8000646 <vcoTap+0x112>
 8000622:	0075      	lsls	r5, r6, #1
 8000624:	086d      	lsrs	r5, r5, #1
 8000626:	465f      	mov	r7, fp
 8000628:	436f      	muls	r7, r5
 800062a:	0c3f      	lsrs	r7, r7, #16
 800062c:	437b      	muls	r3, r7
 800062e:	0c1b      	lsrs	r3, r3, #16
 8000630:	0417      	lsls	r7, r2, #16
 8000632:	0b3f      	lsrs	r7, r7, #12
 8000634:	434f      	muls	r7, r1
 8000636:	19df      	adds	r7, r3, r7
 8000638:	88c3      	ldrh	r3, [r0, #6]
 800063a:	4a29      	ldr	r2, [pc, #164]	; (80006e0 <vcoTap+0x1ac>)
 800063c:	4694      	mov	ip, r2
 800063e:	4463      	add	r3, ip
 8000640:	051b      	lsls	r3, r3, #20
 8000642:	19db      	adds	r3, r3, r7
 8000644:	e002      	b.n	800064c <vcoTap+0x118>
 8000646:	4a27      	ldr	r2, [pc, #156]	; (80006e4 <vcoTap+0x1b0>)
 8000648:	6817      	ldr	r7, [r2, #0]
 800064a:	19db      	adds	r3, r3, r7
 800064c:	4a22      	ldr	r2, [pc, #136]	; (80006d8 <vcoTap+0x1a4>)
 800064e:	6016      	str	r6, [r2, #0]
 8000650:	4d24      	ldr	r5, [pc, #144]	; (80006e4 <vcoTap+0x1b0>)
 8000652:	682a      	ldr	r2, [r5, #0]
 8000654:	1a9a      	subs	r2, r3, r2
 8000656:	0c12      	lsrs	r2, r2, #16
 8000658:	434a      	muls	r2, r1
 800065a:	189a      	adds	r2, r3, r2
 800065c:	602b      	str	r3, [r5, #0]
 800065e:	8885      	ldrh	r5, [r0, #4]
 8000660:	4b1f      	ldr	r3, [pc, #124]	; (80006e0 <vcoTap+0x1ac>)
 8000662:	469c      	mov	ip, r3
 8000664:	4465      	add	r5, ip
 8000666:	17ee      	asrs	r6, r5, #31
 8000668:	19ab      	adds	r3, r5, r6
 800066a:	4073      	eors	r3, r6
 800066c:	17d6      	asrs	r6, r2, #31
 800066e:	0536      	lsls	r6, r6, #20
 8000670:	0d36      	lsrs	r6, r6, #20
 8000672:	18b6      	adds	r6, r6, r2
 8000674:	1336      	asrs	r6, r6, #12
 8000676:	4a1c      	ldr	r2, [pc, #112]	; (80006e8 <vcoTap+0x1b4>)
 8000678:	1ad3      	subs	r3, r2, r3
 800067a:	4373      	muls	r3, r6
 800067c:	17e2      	asrs	r2, r4, #31
 800067e:	0512      	lsls	r2, r2, #20
 8000680:	0d12      	lsrs	r2, r2, #20
 8000682:	1914      	adds	r4, r2, r4
 8000684:	1324      	asrs	r4, r4, #12
 8000686:	436c      	muls	r4, r5
 8000688:	191b      	adds	r3, r3, r4
 800068a:	2280      	movs	r2, #128	; 0x80
 800068c:	0612      	lsls	r2, r2, #24
 800068e:	4694      	mov	ip, r2
 8000690:	4463      	add	r3, ip
 8000692:	0c1c      	lsrs	r4, r3, #16
 8000694:	00e2      	lsls	r2, r4, #3
 8000696:	1912      	adds	r2, r2, r4
 8000698:	0093      	lsls	r3, r2, #2
 800069a:	191b      	adds	r3, r3, r4
 800069c:	00da      	lsls	r2, r3, #3
 800069e:	189b      	adds	r3, r3, r2
 80006a0:	185b      	adds	r3, r3, r1
 80006a2:	0c1b      	lsrs	r3, r3, #16
 80006a4:	8203      	strh	r3, [r0, #16]
 80006a6:	8982      	ldrh	r2, [r0, #12]
 80006a8:	4b10      	ldr	r3, [pc, #64]	; (80006ec <vcoTap+0x1b8>)
 80006aa:	681b      	ldr	r3, [r3, #0]
 80006ac:	429a      	cmp	r2, r3
 80006ae:	d907      	bls.n	80006c0 <vcoTap+0x18c>
 80006b0:	4b0e      	ldr	r3, [pc, #56]	; (80006ec <vcoTap+0x1b8>)
 80006b2:	601a      	str	r2, [r3, #0]
 80006b4:	bcf0      	pop	{r4, r5, r6, r7}
 80006b6:	46bb      	mov	fp, r7
 80006b8:	46b2      	mov	sl, r6
 80006ba:	46a9      	mov	r9, r5
 80006bc:	46a0      	mov	r8, r4
 80006be:	bdf0      	pop	{r4, r5, r6, r7, pc}
 80006c0:	3b01      	subs	r3, #1
 80006c2:	4a0a      	ldr	r2, [pc, #40]	; (80006ec <vcoTap+0x1b8>)
 80006c4:	6013      	str	r3, [r2, #0]
 80006c6:	e7f5      	b.n	80006b4 <vcoTap+0x180>
 80006c8:	20000034 	.word	0x20000034
 80006cc:	41c64e6d 	.word	0x41c64e6d
 80006d0:	00003039 	.word	0x00003039
 80006d4:	08002d14 	.word	0x08002d14
 80006d8:	2000002c 	.word	0x2000002c
 80006dc:	000003ff 	.word	0x000003ff
 80006e0:	fffff800 	.word	0xfffff800
 80006e4:	20000030 	.word	0x20000030
 80006e8:	00000fff 	.word	0x00000fff
 80006ec:	20000028 	.word	0x20000028
